target datalayout = "e-m:e-p270:32:32-p271:32:32-p272:64:64-i64:64-i128:128-f80:128-n8:16:32:64-S128"
target triple = "x86_64-pc-linux-gnu"

%"class.g2o::Parameter" = type <{ %"struct.g2o::HyperGraph::HyperGraphElement", i32, [4 x i8] }>
%"struct.g2o::HyperGraph::HyperGraphElement" = type { ptr }

$_ZN3g2o10HyperGraph17HyperGraphElementC2Ev = comdat any

$_ZN3g2o10HyperGraph17HyperGraphElementD2Ev = comdat any

$_ZN3g2o9ParameterD0Ev = comdat any

$_ZNK3g2o9Parameter11elementTypeEv = comdat any

$_ZN3g2o10HyperGraph17HyperGraphElementD0Ev = comdat any

$_ZTVN3g2o9ParameterE = comdat any

$_ZTIN3g2o9ParameterE = comdat any

$_ZTSN3g2o9ParameterE = comdat any

$_ZTIN3g2o10HyperGraph17HyperGraphElementE = comdat any

$_ZTSN3g2o10HyperGraph17HyperGraphElementE = comdat any

$_ZTVN3g2o10HyperGraph17HyperGraphElementE = comdat any

@_ZTVN3g2o9ParameterE = linkonce_odr unnamed_addr constant { [7 x ptr] } { [7 x ptr] [ptr null, ptr @_ZTIN3g2o9ParameterE, ptr @_ZN3g2o10HyperGraph17HyperGraphElementD2Ev, ptr @_ZN3g2o9ParameterD0Ev, ptr @_ZNK3g2o9Parameter11elementTypeEv, ptr @__cxa_pure_virtual, ptr @__cxa_pure_virtual] }, comdat, align 8
@_ZTIN3g2o9ParameterE = linkonce_odr constant { ptr, ptr, ptr } { ptr getelementptr inbounds (ptr, ptr @_ZTVN10__cxxabiv120__si_class_type_infoE, i64 2), ptr @_ZTSN3g2o9ParameterE, ptr @_ZTIN3g2o10HyperGraph17HyperGraphElementE }, comdat, align 8
@_ZTVN10__cxxabiv120__si_class_type_infoE = external global [0 x ptr]
@_ZTSN3g2o9ParameterE = linkonce_odr constant [17 x i8] c"N3g2o9ParameterE\00", comdat, align 1
@_ZTIN3g2o10HyperGraph17HyperGraphElementE = linkonce_odr constant { ptr, ptr } { ptr getelementptr inbounds (ptr, ptr @_ZTVN10__cxxabiv117__class_type_infoE, i64 2), ptr @_ZTSN3g2o10HyperGraph17HyperGraphElementE }, comdat, align 8
@_ZTVN10__cxxabiv117__class_type_infoE = external global [0 x ptr]
@_ZTSN3g2o10HyperGraph17HyperGraphElementE = linkonce_odr constant [38 x i8] c"N3g2o10HyperGraph17HyperGraphElementE\00", comdat, align 1
@_ZTVN3g2o10HyperGraph17HyperGraphElementE = linkonce_odr unnamed_addr constant { [5 x ptr] } { [5 x ptr] [ptr null, ptr @_ZTIN3g2o10HyperGraph17HyperGraphElementE, ptr @_ZN3g2o10HyperGraph17HyperGraphElementD2Ev, ptr @_ZN3g2o10HyperGraph17HyperGraphElementD0Ev, ptr @__cxa_pure_virtual] }, comdat, align 8

; Function Attrs: mustprogress nounwind uwtable
define void @_ZN3g2o9ParameterC2Ev(ptr noundef nonnull align 8 dereferenceable(12) %0) unnamed_addr #0 align 2 {
  %2 = alloca ptr, align 8
  store ptr %0, ptr %2, align 8, !tbaa !3
  %3 = load ptr, ptr %2, align 8
  call void @_ZN3g2o10HyperGraph17HyperGraphElementC2Ev(ptr noundef nonnull align 8 dereferenceable(8) %3) #3
  store ptr getelementptr inbounds inrange(-16, 40) ({ [7 x ptr] }, ptr @_ZTVN3g2o9ParameterE, i32 0, i32 0, i32 2), ptr %3, align 8, !tbaa !8
  %4 = getelementptr inbounds nuw %"class.g2o::Parameter", ptr %3, i32 0, i32 1
  store i32 -1, ptr %4, align 8, !tbaa !10
  ret void
}

; Function Attrs: inlinehint mustprogress nounwind uwtable
define linkonce_odr void @_ZN3g2o10HyperGraph17HyperGraphElementC2Ev(ptr noundef nonnull align 8 dereferenceable(8) %0) unnamed_addr #1 comdat align 2 {
  %2 = alloca ptr, align 8
  store ptr %0, ptr %2, align 8, !tbaa !14
  %3 = load ptr, ptr %2, align 8
  store ptr getelementptr inbounds inrange(-16, 24) ({ [5 x ptr] }, ptr @_ZTVN3g2o10HyperGraph17HyperGraphElementE, i32 0, i32 0, i32 2), ptr %3, align 8, !tbaa !8
  ret void
}

; Function Attrs: mustprogress nounwind uwtable
define void @_ZN3g2o9Parameter5setIdEi(ptr noundef nonnull align 8 dereferenceable(12) %0, i32 noundef %1) #0 align 2 {
  %3 = alloca ptr, align 8
  %4 = alloca i32, align 4
  store ptr %0, ptr %3, align 8, !tbaa !3
  store i32 %1, ptr %4, align 4, !tbaa !16
  %5 = load ptr, ptr %3, align 8
  %6 = load i32, ptr %4, align 4, !tbaa !16
  %7 = getelementptr inbounds nuw %"class.g2o::Parameter", ptr %5, i32 0, i32 1
  store i32 %6, ptr %7, align 8, !tbaa !10
  ret void
}

; Function Attrs: mustprogress nounwind uwtable
define linkonce_odr void @_ZN3g2o10HyperGraph17HyperGraphElementD2Ev(ptr noundef nonnull align 8 dereferenceable(8) %0) unnamed_addr #0 comdat align 2 {
  %2 = alloca ptr, align 8
  store ptr %0, ptr %2, align 8, !tbaa !14
  ret void
}

; Function Attrs: mustprogress nounwind uwtable
define linkonce_odr void @_ZN3g2o9ParameterD0Ev(ptr noundef nonnull align 8 dereferenceable(12) %0) unnamed_addr #0 comdat align 2 {
  %2 = alloca ptr, align 8
  store ptr %0, ptr %2, align 8, !tbaa !3
  call void @llvm.trap() #4
  unreachable
}

; Function Attrs: mustprogress nounwind uwtable
define linkonce_odr noundef i32 @_ZNK3g2o9Parameter11elementTypeEv(ptr noundef nonnull align 8 dereferenceable(12) %0) unnamed_addr #0 comdat align 2 {
  %2 = alloca ptr, align 8
  store ptr %0, ptr %2, align 8, !tbaa !3
  ret i32 2
}

declare void @__cxa_pure_virtual() unnamed_addr

; Function Attrs: mustprogress nounwind uwtable
define linkonce_odr void @_ZN3g2o10HyperGraph17HyperGraphElementD0Ev(ptr noundef nonnull align 8 dereferenceable(8) %0) unnamed_addr #0 comdat align 2 {
  %2 = alloca ptr, align 8
  store ptr %0, ptr %2, align 8, !tbaa !14
  call void @llvm.trap() #4
  unreachable
}

; Function Attrs: cold noreturn nounwind memory(inaccessiblemem: write)
declare void @llvm.trap() #2


!llvm.module.flags = !{!0, !1, !2}

!0 = !{i32 1, !"wchar_size", i32 4}
!1 = !{i32 8, !"PIC Level", i32 2}
!2 = !{i32 7, !"uwtable", i32 2}
!3 = !{!4, !4, i64 0}
!4 = !{!"p1 _ZTSN3g2o9ParameterE", !5, i64 0}
!5 = !{!"any pointer", !6, i64 0}
!6 = !{!"omnipotent char", !7, i64 0}
!7 = !{!"Simple C++ TBAA"}
!8 = !{!9, !9, i64 0}
!9 = !{!"vtable pointer", !7, i64 0}
!10 = !{!11, !13, i64 8}
!11 = !{!"_ZTSN3g2o9ParameterE", !12, i64 0, !13, i64 8}
!12 = !{!"_ZTSN3g2o10HyperGraph17HyperGraphElementE"}
!13 = !{!"int", !6, i64 0}
!14 = !{!15, !15, i64 0}
!15 = !{!"p1 _ZTSN3g2o10HyperGraph17HyperGraphElementE", !5, i64 0}
!16 = !{!13, !13, i64 0}
