; ModuleID = 'bench/g2o/original/parameter.ll'
source_filename = "bench/g2o/original/parameter.ll"
target datalayout = "e-m:e-p270:32:32-p271:32:32-p272:64:64-i64:64-i128:128-f80:128-n8:16:32:64-S128"
target triple = "x86_64-pc-linux-gnu"

$_ZN3g2o10HyperGraph17HyperGraphElementD2Ev = comdat any

$_ZN3g2o9ParameterD0Ev = comdat any

$_ZNK3g2o9Parameter11elementTypeEv = comdat any

$_ZTVN3g2o9ParameterE = comdat any

$_ZTIN3g2o9ParameterE = comdat any

$_ZTSN3g2o9ParameterE = comdat any

$_ZTIN3g2o10HyperGraph17HyperGraphElementE = comdat any

$_ZTSN3g2o10HyperGraph17HyperGraphElementE = comdat any

@_ZTVN3g2o9ParameterE = linkonce_odr unnamed_addr constant { [7 x ptr] } { [7 x ptr] [ptr null, ptr @_ZTIN3g2o9ParameterE, ptr @_ZN3g2o10HyperGraph17HyperGraphElementD2Ev, ptr @_ZN3g2o9ParameterD0Ev, ptr @_ZNK3g2o9Parameter11elementTypeEv, ptr @__cxa_pure_virtual, ptr @__cxa_pure_virtual] }, comdat, align 8
@_ZTIN3g2o9ParameterE = linkonce_odr constant { ptr, ptr, ptr } { ptr getelementptr inbounds (ptr, ptr @_ZTVN10__cxxabiv120__si_class_type_infoE, i64 2), ptr @_ZTSN3g2o9ParameterE, ptr @_ZTIN3g2o10HyperGraph17HyperGraphElementE }, comdat, align 8
@_ZTVN10__cxxabiv120__si_class_type_infoE = external global [0 x ptr]
@_ZTSN3g2o9ParameterE = linkonce_odr constant [17 x i8] c"N3g2o9ParameterE\00", comdat, align 1
@_ZTIN3g2o10HyperGraph17HyperGraphElementE = linkonce_odr constant { ptr, ptr } { ptr getelementptr inbounds (ptr, ptr @_ZTVN10__cxxabiv117__class_type_infoE, i64 2), ptr @_ZTSN3g2o10HyperGraph17HyperGraphElementE }, comdat, align 8
@_ZTVN10__cxxabiv117__class_type_infoE = external global [0 x ptr]
@_ZTSN3g2o10HyperGraph17HyperGraphElementE = linkonce_odr constant [38 x i8] c"N3g2o10HyperGraph17HyperGraphElementE\00", comdat, align 1

; Function Attrs: mustprogress nofree norecurse nosync nounwind willreturn memory(argmem: write) uwtable
define void @_ZN3g2o9ParameterC2Ev(ptr noundef nonnull writeonly align 8 captures(none) dereferenceable(12) initializes((0, 12)) %0) unnamed_addr #0 align 2 {
  store ptr getelementptr inbounds nuw inrange(-16, 40) (i8, ptr @_ZTVN3g2o9ParameterE, i64 16), ptr %0, align 8, !tbaa !3
  %2 = getelementptr inbounds nuw i8, ptr %0, i64 8
  store i32 -1, ptr %2, align 8, !tbaa !6
  ret void
}

; Function Attrs: mustprogress nofree norecurse nosync nounwind willreturn memory(argmem: write) uwtable
define void @_ZN3g2o9Parameter5setIdEi(ptr noundef nonnull writeonly align 8 captures(none) dereferenceable(12) initializes((8, 12)) %0, i32 noundef %1) local_unnamed_addr #0 align 2 {
  %3 = getelementptr inbounds nuw i8, ptr %0, i64 8
  store i32 %1, ptr %3, align 8, !tbaa !6
  ret void
}

; Function Attrs: mustprogress nounwind uwtable
define linkonce_odr void @_ZN3g2o10HyperGraph17HyperGraphElementD2Ev(ptr noundef nonnull align 8 dereferenceable(8) %0) unnamed_addr #1 comdat align 2 {
  ret void
}

; Function Attrs: mustprogress nounwind uwtable
define linkonce_odr void @_ZN3g2o9ParameterD0Ev(ptr noundef nonnull align 8 dereferenceable(12) %0) unnamed_addr #1 comdat align 2 {
  tail call void @llvm.trap() #3
  unreachable
}

; Function Attrs: mustprogress nounwind uwtable
define linkonce_odr noundef i32 @_ZNK3g2o9Parameter11elementTypeEv(ptr noundef nonnull align 8 dereferenceable(12) %0) unnamed_addr #1 comdat align 2 {
  ret i32 2
}

declare void @__cxa_pure_virtual() unnamed_addr

; Function Attrs: cold noreturn nounwind memory(inaccessiblemem: write)
declare void @llvm.trap() #2


!llvm.module.flags = !{!0, !1, !2}

!0 = !{i32 1, !"wchar_size", i32 4}
!1 = !{i32 8, !"PIC Level", i32 2}
!2 = !{i32 7, !"uwtable", i32 2}
!3 = !{!4, !4, i64 0}
!4 = !{!"vtable pointer", !5, i64 0}
!5 = !{!"Simple C++ TBAA"}
!6 = !{!7, !9, i64 8}
!7 = !{!"_ZTSN3g2o9ParameterE", !8, i64 0, !9, i64 8}
!8 = !{!"_ZTSN3g2o10HyperGraph17HyperGraphElementE"}
!9 = !{!"int", !10, i64 0}
!10 = !{!"omnipotent char", !5, i64 0}
